target datalayout = "e-m:e-p270:32:32-p271:32:32-p272:64:64-i64:64-i128:128-f80:128-n8:16:32:64-S128"
target triple = "x86_64-pc-linux-gnu"

@hf_bitcoin_msg_version = internal global i32 0, align 4
@hf_msg_version_version = internal global i32 0, align 4
@hf_msg_version_services = internal global i32 0, align 4
@hf_msg_version_timestamp = internal global i32 0, align 4
@hf_msg_version_addr_me = internal global i32 0, align 4
@hf_msg_version_addr_you = internal global i32 0, align 4
@hf_msg_version_nonce = internal global i32 0, align 4
@hf_msg_version_user_agent = internal global i32 0, align 4
@hf_msg_version_start_height = internal global i32 0, align 4
@hf_msg_version_relay = internal global i32 0, align 4
@hf_address_services = internal global i32 0, align 4
@hf_address_address = internal global i32 0, align 4
@hf_address_port = internal global i32 0, align 4
@ett_bitcoin_msg = internal global i32 0, align 4
@ett_services = internal global i32 0, align 4
@ett_address = internal global i32 0, align 4
@services_hf_flags = internal constant [9 x ptr] [ptr @hf_services_network, ptr @hf_services_getutxo, ptr @hf_services_bloom, ptr @hf_services_witness, ptr @hf_services_xthin, ptr @hf_services_compactfilters, ptr @hf_services_networklimited, ptr @hf_services_p2pv2, ptr null], align 16

; Function Attrs: null_pointer_is_valid sspstrong uwtable
define internal ptr @create_address_tree(ptr noundef %0, ptr noundef %1, i32 noundef %2) #0 {
  %4 = alloca ptr, align 8
  %5 = alloca ptr, align 8
  %6 = alloca i32, align 4
  %7 = alloca ptr, align 8
  store ptr %0, ptr %4, align 8
  store ptr %1, ptr %5, align 8
  store i32 %2, ptr %6, align 4
  call void @llvm.lifetime.start.p0(i64 8, ptr %7) #4
  %8 = load ptr, ptr %5, align 8
  %9 = load i32, ptr @ett_address, align 4
  %10 = call ptr @proto_item_add_subtree(ptr noundef %8, i32 noundef %9)
  store ptr %10, ptr %7, align 8
  %11 = load ptr, ptr %7, align 8
  %12 = load ptr, ptr %4, align 8
  %13 = load i32, ptr %6, align 4
  %14 = load i32, ptr @hf_address_services, align 4
  %15 = load i32, ptr @ett_services, align 4
  %16 = call ptr @proto_tree_add_bitmask(ptr noundef %11, ptr noundef %12, i32 noundef %13, i32 noundef %14, i32 noundef %15, ptr noundef @services_hf_flags, i32 noundef -2147483648)
  %17 = load i32, ptr %6, align 4
  %18 = add i32 %17, 8
  store i32 %18, ptr %6, align 4
  %19 = load ptr, ptr %7, align 8
  %20 = load i32, ptr @hf_address_address, align 4
  %21 = load ptr, ptr %4, align 8
  %22 = load i32, ptr %6, align 4
  %23 = call ptr @proto_tree_add_item(ptr noundef %19, i32 noundef %20, ptr noundef %21, i32 noundef %22, i32 noundef 16, i32 noundef 0)
  %24 = load i32, ptr %6, align 4
  %25 = add i32 %24, 16
  store i32 %25, ptr %6, align 4
  %26 = load ptr, ptr %7, align 8
  %27 = load i32, ptr @hf_address_port, align 4
  %28 = load ptr, ptr %4, align 8
  %29 = load i32, ptr %6, align 4
  %30 = call ptr @proto_tree_add_item(ptr noundef %26, i32 noundef %27, ptr noundef %28, i32 noundef %29, i32 noundef 2, i32 noundef 0)
  %31 = load ptr, ptr %7, align 8
  call void @llvm.lifetime.end.p0(i64 8, ptr %7) #4
  ret ptr %31
}

; Function Attrs: null_pointer_is_valid sspstrong uwtable
define internal i32 @dissect_bitcoin_msg_version(ptr noundef %0, ptr noundef %1, ptr noundef %2, ptr noundef %3) #0 {
  %5 = alloca ptr, align 8
  %6 = alloca ptr, align 8
  %7 = alloca ptr, align 8
  %8 = alloca ptr, align 8
  %9 = alloca ptr, align 8
  %10 = alloca i32, align 4
  %11 = alloca i32, align 4
  store ptr %0, ptr %5, align 8
  store ptr %1, ptr %6, align 8
  store ptr %2, ptr %7, align 8
  store ptr %3, ptr %8, align 8
  call void @llvm.lifetime.start.p0(i64 8, ptr %9) #4
  call void @llvm.lifetime.start.p0(i64 4, ptr %10) #4
  call void @llvm.lifetime.start.p0(i64 4, ptr %11) #4
  store i32 0, ptr %11, align 4
  %12 = load ptr, ptr %7, align 8
  %13 = load i32, ptr @hf_bitcoin_msg_version, align 4
  %14 = load ptr, ptr %5, align 8
  %15 = load i32, ptr %11, align 4
  %16 = call ptr @proto_tree_add_item(ptr noundef %12, i32 noundef %13, ptr noundef %14, i32 noundef %15, i32 noundef -1, i32 noundef 0)
  store ptr %16, ptr %9, align 8
  %17 = load ptr, ptr %9, align 8
  %18 = load i32, ptr @ett_bitcoin_msg, align 4
  %19 = call ptr @proto_item_add_subtree(ptr noundef %17, i32 noundef %18)
  store ptr %19, ptr %7, align 8
  %20 = load ptr, ptr %5, align 8
  %21 = load i32, ptr %11, align 4
  %22 = call i32 @tvb_get_letohl(ptr noundef %20, i32 noundef %21)
  store i32 %22, ptr %10, align 4
  %23 = load ptr, ptr %7, align 8
  %24 = load i32, ptr @hf_msg_version_version, align 4
  %25 = load ptr, ptr %5, align 8
  %26 = load i32, ptr %11, align 4
  %27 = call ptr @proto_tree_add_item(ptr noundef %23, i32 noundef %24, ptr noundef %25, i32 noundef %26, i32 noundef 4, i32 noundef -2147483648)
  %28 = load i32, ptr %11, align 4
  %29 = add i32 %28, 4
  store i32 %29, ptr %11, align 4
  %30 = load ptr, ptr %7, align 8
  %31 = load ptr, ptr %5, align 8
  %32 = load i32, ptr %11, align 4
  %33 = load i32, ptr @hf_msg_version_services, align 4
  %34 = load i32, ptr @ett_services, align 4
  %35 = call ptr @proto_tree_add_bitmask(ptr noundef %30, ptr noundef %31, i32 noundef %32, i32 noundef %33, i32 noundef %34, ptr noundef @services_hf_flags, i32 noundef -2147483648)
  %36 = load i32, ptr %11, align 4
  %37 = add i32 %36, 8
  store i32 %37, ptr %11, align 4
  %38 = load ptr, ptr %7, align 8
  %39 = load i32, ptr @hf_msg_version_timestamp, align 4
  %40 = load ptr, ptr %5, align 8
  %41 = load i32, ptr %11, align 4
  %42 = call ptr @proto_tree_add_item(ptr noundef %38, i32 noundef %39, ptr noundef %40, i32 noundef %41, i32 noundef 8, i32 noundef -2147483648)
  %43 = load i32, ptr %11, align 4
  %44 = add i32 %43, 8
  store i32 %44, ptr %11, align 4
  %45 = load ptr, ptr %7, align 8
  %46 = load i32, ptr @hf_msg_version_addr_you, align 4
  %47 = load ptr, ptr %5, align 8
  %48 = load i32, ptr %11, align 4
  %49 = call ptr @proto_tree_add_item(ptr noundef %45, i32 noundef %46, ptr noundef %47, i32 noundef %48, i32 noundef 26, i32 noundef 0)
  store ptr %49, ptr %9, align 8
  %50 = load ptr, ptr %5, align 8
  %51 = load ptr, ptr %9, align 8
  %52 = load i32, ptr %11, align 4
  %53 = call ptr @create_address_tree(ptr noundef %50, ptr noundef %51, i32 noundef %52)
  %54 = load i32, ptr %11, align 4
  %55 = add i32 %54, 26
  store i32 %55, ptr %11, align 4
  %56 = load i32, ptr %10, align 4
  %57 = icmp uge i32 %56, 106
  br i1 %57, label %58, label %81

58:                                               ; preds = %4
  %59 = load ptr, ptr %7, align 8
  %60 = load i32, ptr @hf_msg_version_addr_me, align 4
  %61 = load ptr, ptr %5, align 8
  %62 = load i32, ptr %11, align 4
  %63 = call ptr @proto_tree_add_item(ptr noundef %59, i32 noundef %60, ptr noundef %61, i32 noundef %62, i32 noundef 26, i32 noundef 0)
  store ptr %63, ptr %9, align 8
  %64 = load ptr, ptr %5, align 8
  %65 = load ptr, ptr %9, align 8
  %66 = load i32, ptr %11, align 4
  %67 = call ptr @create_address_tree(ptr noundef %64, ptr noundef %65, i32 noundef %66)
  %68 = load i32, ptr %11, align 4
  %69 = add i32 %68, 26
  store i32 %69, ptr %11, align 4
  %70 = load ptr, ptr %7, align 8
  %71 = load i32, ptr @hf_msg_version_nonce, align 4
  %72 = load ptr, ptr %5, align 8
  %73 = load i32, ptr %11, align 4
  %74 = call ptr @proto_tree_add_item(ptr noundef %70, i32 noundef %71, ptr noundef %72, i32 noundef %73, i32 noundef 8, i32 noundef -2147483648)
  %75 = load i32, ptr %11, align 4
  %76 = add i32 %75, 8
  store i32 %76, ptr %11, align 4
  %77 = load ptr, ptr %7, align 8
  %78 = load i32, ptr @hf_msg_version_user_agent, align 4
  %79 = load ptr, ptr %5, align 8
  %80 = call ptr @create_string_tree(ptr noundef %77, i32 noundef %78, ptr noundef %79, ptr noundef %11)
  br label %81

81:                                               ; preds = %58, %4
  %82 = load i32, ptr %10, align 4
  %83 = icmp uge i32 %82, 209
  br i1 %83, label %84, label %92

84:                                               ; preds = %81
  %85 = load ptr, ptr %7, align 8
  %86 = load i32, ptr @hf_msg_version_start_height, align 4
  %87 = load ptr, ptr %5, align 8
  %88 = load i32, ptr %11, align 4
  %89 = call ptr @proto_tree_add_item(ptr noundef %85, i32 noundef %86, ptr noundef %87, i32 noundef %88, i32 noundef 4, i32 noundef -2147483648)
  %90 = load i32, ptr %11, align 4
  %91 = add i32 %90, 4
  store i32 %91, ptr %11, align 4
  br label %92

92:                                               ; preds = %84, %81
  %93 = load i32, ptr %10, align 4
  %94 = icmp uge i32 %93, 70002
  br i1 %94, label %95, label %103

95:                                               ; preds = %92
  %96 = load ptr, ptr %7, align 8
  %97 = load i32, ptr @hf_msg_version_relay, align 4
  %98 = load ptr, ptr %5, align 8
  %99 = load i32, ptr %11, align 4
  %100 = call ptr @proto_tree_add_item(ptr noundef %96, i32 noundef %97, ptr noundef %98, i32 noundef %99, i32 noundef 1, i32 noundef -2147483648)
  %101 = load i32, ptr %11, align 4
  %102 = add i32 %101, 1
  store i32 %102, ptr %11, align 4
  br label %103

103:                                              ; preds = %95, %92
  %104 = load i32, ptr %11, align 4
  call void @llvm.lifetime.end.p0(i64 4, ptr %11) #4
  call void @llvm.lifetime.end.p0(i64 4, ptr %10) #4
  call void @llvm.lifetime.end.p0(i64 8, ptr %9) #4
  ret i32 %104
}