; Function Attrs: null_pointer_is_valid sspstrong uwtable
define internal i32 @dissect_bitcoin_msg_version(ptr noundef %0, ptr readnone captures(none) %1, ptr noundef %2, ptr readnone captures(none) %3) #0 {
  %5 = alloca i32, align 4
  call void @llvm.lifetime.start.p0(i64 4, ptr nonnull %5) #5
  %6 = load i32, ptr @hf_bitcoin_msg_version, align 4
  %7 = tail call ptr @proto_tree_add_item(ptr noundef %2, i32 noundef %6, ptr noundef %0, i32 noundef 0, i32 noundef -1, i32 noundef 0)
  %8 = load i32, ptr @ett_bitcoin_msg, align 4
  %9 = tail call ptr @proto_item_add_subtree(ptr noundef %7, i32 noundef %8)
  %10 = tail call i32 @tvb_get_letohl(ptr noundef %0, i32 noundef 0)
  %11 = load i32, ptr @hf_msg_version_version, align 4
  %12 = tail call ptr @proto_tree_add_item(ptr noundef %9, i32 noundef %11, ptr noundef %0, i32 noundef 0, i32 noundef 4, i32 noundef -2147483648)
  %13 = load i32, ptr @hf_msg_version_services, align 4
  %14 = load i32, ptr @ett_services, align 4
  %15 = tail call ptr @proto_tree_add_bitmask(ptr noundef %9, ptr noundef %0, i32 noundef 4, i32 noundef %13, i32 noundef %14, ptr noundef nonnull @services_hf_flags, i32 noundef -2147483648)
  %16 = load i32, ptr @hf_msg_version_timestamp, align 4
  %17 = tail call ptr @proto_tree_add_item(ptr noundef %9, i32 noundef %16, ptr noundef %0, i32 noundef 12, i32 noundef 8, i32 noundef -2147483648)
  %18 = load i32, ptr @hf_msg_version_addr_you, align 4
  %19 = tail call ptr @proto_tree_add_item(ptr noundef %9, i32 noundef %18, ptr noundef %0, i32 noundef 20, i32 noundef 26, i32 noundef 0)
  %20 = load i32, ptr @ett_address, align 4
  %21 = tail call ptr @proto_item_add_subtree(ptr noundef %19, i32 noundef %20)
  %22 = load i32, ptr @hf_address_services, align 4
  %23 = load i32, ptr @ett_services, align 4
  %24 = tail call ptr @proto_tree_add_bitmask(ptr noundef %21, ptr noundef %0, i32 noundef 20, i32 noundef %22, i32 noundef %23, ptr noundef nonnull @services_hf_flags, i32 noundef -2147483648)
  %25 = load i32, ptr @hf_address_address, align 4
  %26 = tail call ptr @proto_tree_add_item(ptr noundef %21, i32 noundef %25, ptr noundef %0, i32 noundef 28, i32 noundef 16, i32 noundef 0)
  %27 = load i32, ptr @hf_address_port, align 4
  %28 = tail call ptr @proto_tree_add_item(ptr noundef %21, i32 noundef %27, ptr noundef %0, i32 noundef 44, i32 noundef 2, i32 noundef 0)
  %29 = icmp ugt i32 %10, 105
  br i1 %29, label %30, label %.thread28

30:                                               ; preds = %4
  %31 = load i32, ptr @hf_msg_version_addr_me, align 4
  %32 = tail call ptr @proto_tree_add_item(ptr noundef %9, i32 noundef %31, ptr noundef %0, i32 noundef 46, i32 noundef 26, i32 noundef 0)
  %33 = load i32, ptr @ett_address, align 4
  %34 = tail call ptr @proto_item_add_subtree(ptr noundef %32, i32 noundef %33)
  %35 = load i32, ptr @hf_address_services, align 4
  %36 = load i32, ptr @ett_services, align 4
  %37 = tail call ptr @proto_tree_add_bitmask(ptr noundef %34, ptr noundef %0, i32 noundef 46, i32 noundef %35, i32 noundef %36, ptr noundef nonnull @services_hf_flags, i32 noundef -2147483648)
  %38 = load i32, ptr @hf_address_address, align 4
  %39 = tail call ptr @proto_tree_add_item(ptr noundef %34, i32 noundef %38, ptr noundef %0, i32 noundef 54, i32 noundef 16, i32 noundef 0)
  %40 = load i32, ptr @hf_address_port, align 4
  %41 = tail call ptr @proto_tree_add_item(ptr noundef %34, i32 noundef %40, ptr noundef %0, i32 noundef 70, i32 noundef 2, i32 noundef 0)
  %42 = load i32, ptr @hf_msg_version_nonce, align 4
  %43 = tail call ptr @proto_tree_add_item(ptr noundef %9, i32 noundef %42, ptr noundef %0, i32 noundef 72, i32 noundef 8, i32 noundef -2147483648)
  store i32 80, ptr %5, align 4
  %44 = load i32, ptr @hf_msg_version_user_agent, align 4
  call fastcc void @create_string_tree(ptr noundef %9, i32 noundef %44, ptr noundef %0, ptr noundef nonnull %5)
  %45 = icmp ugt i32 %10, 208
  %.pre = load i32, ptr %5, align 4
  br i1 %45, label %46, label %.thread28

46:                                               ; preds = %30
  %47 = load i32, ptr @hf_msg_version_start_height, align 4
  %48 = tail call ptr @proto_tree_add_item(ptr noundef %9, i32 noundef %47, ptr noundef %0, i32 noundef %.pre, i32 noundef 4, i32 noundef -2147483648)
  %49 = add i32 %.pre, 4
  %50 = icmp ugt i32 %10, 70001
  br i1 %50, label %51, label %.thread28

51:                                               ; preds = %46
  %52 = load i32, ptr @hf_msg_version_relay, align 4
  %53 = tail call ptr @proto_tree_add_item(ptr noundef %9, i32 noundef %52, ptr noundef %0, i32 noundef %49, i32 noundef 1, i32 noundef -2147483648)
  %54 = add i32 %.pre, 5
  br label %.thread28

.thread28:                                        ; preds = %4, %30, %51, %46
  %55 = phi i32 [ 46, %4 ], [ %.pre, %30 ], [ %54, %51 ], [ %49, %46 ]
  call void @llvm.lifetime.end.p0(i64 4, ptr nonnull %5) #5
  ret i32 %55
}